; Function Attrs: mustprogress uwtable
define hidden noundef ptr @pj_eck3(ptr noundef %0) local_unnamed_addr #0 {
  %.not = icmp eq ptr %0, null
  br i1 %.not, label %13, label %2

2:                                                ; preds = %1
  %3 = tail call noalias dereferenceable_or_null(32) ptr @calloc(i64 noundef 1, i64 noundef 32) #4
  %4 = icmp eq ptr %3, null
  br i1 %4, label %5, label %7

5:                                                ; preds = %2
  %6 = tail call noundef ptr @_Z21pj_default_destructorP8PJconstsi(ptr noundef nonnull %0, i32 noundef 4096)
  br label %_Z33pj_projection_specific_setup_eck3P8PJconsts.exit

7:                                                ; preds = %2
  %8 = getelementptr inbounds i8, ptr %0, i64 88
  store ptr %3, ptr %8, align 8
  store <2 x double> <double 0x3FDB05F35F5E99C0, double 0x3FEB05F35F5E99C0>, ptr %3, align 8
  %9 = getelementptr inbounds i8, ptr %3, i64 16
  store <2 x double> <double 1.000000e+00, double 0x3FD9F02F6222C720>, ptr %9, align 8
  %10 = getelementptr inbounds i8, ptr %0, i64 216
  store double 0.000000e+00, ptr %10, align 8
  %11 = getelementptr inbounds i8, ptr %0, i64 112
  store ptr @_ZL14eck3_s_inverse5PJ_XYP8PJconsts, ptr %11, align 8
  %12 = getelementptr inbounds i8, ptr %0, i64 104
  store ptr @_ZL14eck3_s_forward5PJ_LPP8PJconsts, ptr %12, align 8
  br label %_Z33pj_projection_specific_setup_eck3P8PJconsts.exit

13:                                               ; preds = %1
  %14 = tail call noundef ptr @_Z6pj_newv()
  %15 = icmp eq ptr %14, null
  br i1 %15, label %_Z33pj_projection_specific_setup_eck3P8PJconsts.exit, label %16

16:                                               ; preds = %13
  %17 = getelementptr inbounds i8, ptr %14, i64 8
  store ptr @.str, ptr %17, align 8
  %18 = getelementptr inbounds i8, ptr %14, i64 16
  store ptr @_ZL8des_eck3, ptr %18, align 8
  %19 = getelementptr inbounds i8, ptr %14, i64 360
  store i32 1, ptr %19, align 8
  %20 = getelementptr inbounds i8, ptr %14, i64 380
  store i32 4, ptr %20, align 4
  %21 = getelementptr inbounds i8, ptr %14, i64 384
  store i32 1, ptr %21, align 8
  br label %_Z33pj_projection_specific_setup_eck3P8PJconsts.exit

_Z33pj_projection_specific_setup_eck3P8PJconsts.exit: ; preds = %7, %5, %13, %16
  %.0 = phi ptr [ %14, %16 ], [ null, %13 ], [ %6, %5 ], [ %0, %7 ]
  ret ptr %.0
}